target datalayout = "e-m:e-p270:32:32-p271:32:32-p272:64:64-i64:64-i128:128-f80:128-n8:16:32:64-S128"
target triple = "x86_64-pc-linux-gnu"

%struct.ResourceOwnerData = type { ptr, ptr, ptr, ptr, i8, i8, i8, i8, i32, [32 x %struct.ResourceElem], ptr, i32, i32, [15 x ptr] }
%struct.ResourceElem = type { i64, ptr }

; Function Attrs: nounwind uwtable
define dso_local void @ResourceOwnerRememberLock(ptr noundef %0, ptr noundef %1) #0 {
  %3 = alloca ptr, align 8
  %4 = alloca ptr, align 8
  store ptr %0, ptr %3, align 8
  store ptr %1, ptr %4, align 8
  %5 = load ptr, ptr %3, align 8
  %6 = getelementptr inbounds nuw %struct.ResourceOwnerData, ptr %5, i32 0, i32 6
  %7 = load i8, ptr %6, align 2
  %8 = zext i8 %7 to i32
  %9 = icmp sgt i32 %8, 15
  br i1 %9, label %10, label %11

10:                                               ; preds = %2
  br label %32

11:                                               ; preds = %2
  %12 = load ptr, ptr %3, align 8
  %13 = getelementptr inbounds nuw %struct.ResourceOwnerData, ptr %12, i32 0, i32 6
  %14 = load i8, ptr %13, align 2
  %15 = zext i8 %14 to i32
  %16 = icmp slt i32 %15, 15
  br i1 %16, label %17, label %26

17:                                               ; preds = %11
  %18 = load ptr, ptr %4, align 8
  %19 = load ptr, ptr %3, align 8
  %20 = getelementptr inbounds nuw %struct.ResourceOwnerData, ptr %19, i32 0, i32 13
  %21 = load ptr, ptr %3, align 8
  %22 = getelementptr inbounds nuw %struct.ResourceOwnerData, ptr %21, i32 0, i32 6
  %23 = load i8, ptr %22, align 2
  %24 = zext i8 %23 to i64
  %25 = getelementptr inbounds nuw [15 x ptr], ptr %20, i64 0, i64 %24
  store ptr %18, ptr %25, align 8
  br label %27

26:                                               ; preds = %11
  br label %27

27:                                               ; preds = %26, %17
  %28 = load ptr, ptr %3, align 8
  %29 = getelementptr inbounds nuw %struct.ResourceOwnerData, ptr %28, i32 0, i32 6
  %30 = load i8, ptr %29, align 2
  %31 = add i8 %30, 1
  store i8 %31, ptr %29, align 2
  br label %32

32:                                               ; preds = %27, %10
  ret void
}