; Function Attrs: mustprogress nofree norecurse nosync nounwind willreturn memory(argmem: readwrite) uwtable
define dso_local void @ResourceOwnerRememberLock(ptr noundef captures(none) %0, ptr noundef %1) local_unnamed_addr #6 {
  %3 = getelementptr inbounds nuw i8, ptr %0, i64 34
  %4 = load i8, ptr %3, align 2
  %5 = icmp ugt i8 %4, 15
  br i1 %5, label %13, label %6

6:                                                ; preds = %2
  %.not = icmp eq i8 %4, 15
  br i1 %.not, label %11, label %7

7:                                                ; preds = %6
  %8 = getelementptr inbounds nuw i8, ptr %0, i64 568
  %9 = zext nneg i8 %4 to i64
  %10 = getelementptr inbounds nuw [15 x ptr], ptr %8, i64 0, i64 %9
  store ptr %1, ptr %10, align 8
  br label %11

11:                                               ; preds = %6, %7
  %12 = add nuw nsw i8 %4, 1
  store i8 %12, ptr %3, align 2
  br label %13

13:                                               ; preds = %2, %11
  ret void
}